; Function Attrs: mustprogress nounwind uwtable
define hidden void @_ZN10JfrTraceId6assignEPK11ModuleEntry(ptr nocapture noundef writeonly %0) local_unnamed_addr #0 align 2 {
  br label %2

2:                                                ; preds = %2, %1
  %3 = load volatile i64, ptr @_ZZL14next_module_idvE17module_id_counter, align 8
  %4 = add i64 %3, 1
  %5 = tail call noundef i64 asm sideeffect "lock cmpxchgq $1,($3)", "={ax},r,{ax},r,~{cc},~{memory},~{dirflag},~{fpsr},~{flags}"(i64 %4, i64 %3, ptr nonnull @_ZZL14next_module_idvE17module_id_counter) #8, !srcloc !6
  %.not.i.i = icmp eq i64 %5, %3
  br i1 %.not.i.i, label %_ZL14next_module_idv.exit, label %2, !llvm.loop !7

_ZL14next_module_idv.exit:                        ; preds = %2
  %6 = shl i64 %4, 16
  %7 = getelementptr inbounds i8, ptr %0, i64 72
  store i64 %6, ptr %7, align 8
  ret void
}